target datalayout = "e-m:e-p270:32:32-p271:32:32-p272:64:64-i64:64-i128:128-f80:128-n8:16:32:64-S128"
target triple = "x86_64-pc-linux-gnu"

%struct.progress = type { ptr, ptr, i64, i64, i32, i32, i32, ptr, i64, %struct.strbuf, i32, i32 }
%struct.strbuf = type { i64, i64, ptr }
%struct.throughput = type { i64, i64, i64, i32, i32, [8 x i32], [8 x i32], i32, %struct.strbuf }

@progress_test_ns = dso_local global i64 0, align 8
@progress_update = internal global i32 0, align 4
@progress_testing = dso_local global i32 0, align 4
@.str.2 = private unnamed_addr constant [3 x i8] c", \00", align 1
@.str.3 = private unnamed_addr constant [4 x i8] c" | \00", align 1
@.str.4 = private unnamed_addr constant [11 x i8] c"./strbuf.h\00", align 1
@.str.5 = private unnamed_addr constant [30 x i8] c"strbuf_setlen() beyond buffer\00", align 1
@strbuf_slopbuf = external global [0 x i8], align 1

; Function Attrs: inlinehint nounwind uwtable
define internal void @strbuf_addstr(ptr noundef %0, ptr noundef %1) #5 {
  %3 = alloca ptr, align 8
  %4 = alloca ptr, align 8
  store ptr %0, ptr %3, align 8, !tbaa !29
  store ptr %1, ptr %4, align 8, !tbaa !31
  %5 = load ptr, ptr %3, align 8, !tbaa !29
  %6 = load ptr, ptr %4, align 8, !tbaa !31
  %7 = load ptr, ptr %4, align 8, !tbaa !31
  %8 = call i64 @strlen(ptr noundef %7) #11
  call void @strbuf_add(ptr noundef %5, ptr noundef %6, i64 noundef %8)
  ret void
}

; Function Attrs: inlinehint nounwind uwtable
define internal void @strbuf_setlen(ptr noundef %0, i64 noundef %1) #5 {
  %3 = alloca ptr, align 8
  %4 = alloca i64, align 8
  store ptr %0, ptr %3, align 8, !tbaa !29
  store i64 %1, ptr %4, align 8, !tbaa !11
  %5 = load i64, ptr %4, align 8, !tbaa !11
  %6 = load ptr, ptr %3, align 8, !tbaa !29
  %7 = getelementptr inbounds nuw %struct.strbuf, ptr %6, i32 0, i32 0
  %8 = load i64, ptr %7, align 8, !tbaa !48
  %9 = icmp ne i64 %8, 0
  br i1 %9, label %10, label %15

10:                                               ; preds = %2
  %11 = load ptr, ptr %3, align 8, !tbaa !29
  %12 = getelementptr inbounds nuw %struct.strbuf, ptr %11, i32 0, i32 0
  %13 = load i64, ptr %12, align 8, !tbaa !48
  %14 = sub i64 %13, 1
  br label %16

15:                                               ; preds = %2
  br label %16

16:                                               ; preds = %15, %10
  %17 = phi i64 [ %14, %10 ], [ 0, %15 ]
  %18 = icmp ugt i64 %5, %17
  br i1 %18, label %19, label %20

19:                                               ; preds = %16
  call void (ptr, i32, ptr, ...) @BUG_fl(ptr noundef @.str.4, i32 noundef 167, ptr noundef @.str.5) #10
  unreachable

20:                                               ; preds = %16
  %21 = load i64, ptr %4, align 8, !tbaa !11
  %22 = load ptr, ptr %3, align 8, !tbaa !29
  %23 = getelementptr inbounds nuw %struct.strbuf, ptr %22, i32 0, i32 1
  store i64 %21, ptr %23, align 8, !tbaa !32
  %24 = load ptr, ptr %3, align 8, !tbaa !29
  %25 = getelementptr inbounds nuw %struct.strbuf, ptr %24, i32 0, i32 2
  %26 = load ptr, ptr %25, align 8, !tbaa !41
  %27 = icmp ne ptr %26, @strbuf_slopbuf
  br i1 %27, label %28, label %34

28:                                               ; preds = %20
  %29 = load ptr, ptr %3, align 8, !tbaa !29
  %30 = getelementptr inbounds nuw %struct.strbuf, ptr %29, i32 0, i32 2
  %31 = load ptr, ptr %30, align 8, !tbaa !41
  %32 = load i64, ptr %4, align 8, !tbaa !11
  %33 = getelementptr inbounds nuw i8, ptr %31, i64 %32
  store i8 0, ptr %33, align 1, !tbaa !49
  br label %35

34:                                               ; preds = %20
  br label %35

35:                                               ; preds = %34, %28
  ret void
}

; Function Attrs: nounwind uwtable
define internal void @throughput_string(ptr noundef %0, i64 noundef %1, i32 noundef %2) #0 {
  %4 = alloca ptr, align 8
  %5 = alloca i64, align 8
  %6 = alloca i32, align 4
  store ptr %0, ptr %4, align 8, !tbaa !29
  store i64 %1, ptr %5, align 8, !tbaa !11
  store i32 %2, ptr %6, align 4, !tbaa !4
  %7 = load ptr, ptr %4, align 8, !tbaa !29
  call void @strbuf_setlen(ptr noundef %7, i64 noundef 0)
  %8 = load ptr, ptr %4, align 8, !tbaa !29
  call void @strbuf_addstr(ptr noundef %8, ptr noundef @.str.2)
  %9 = load ptr, ptr %4, align 8, !tbaa !29
  %10 = load i64, ptr %5, align 8, !tbaa !11
  call void @strbuf_humanise_bytes(ptr noundef %9, i64 noundef %10)
  %11 = load ptr, ptr %4, align 8, !tbaa !29
  call void @strbuf_addstr(ptr noundef %11, ptr noundef @.str.3)
  %12 = load ptr, ptr %4, align 8, !tbaa !29
  %13 = load i32, ptr %6, align 4, !tbaa !4
  %14 = mul i32 %13, 1024
  %15 = zext i32 %14 to i64
  call void @strbuf_humanise_rate(ptr noundef %12, i64 noundef %15)
  ret void
}

; Function Attrs: nounwind uwtable
define internal i64 @progress_getnanotime(ptr noundef %0) #0 {
  %2 = alloca i64, align 8
  %3 = alloca ptr, align 8
  store ptr %0, ptr %3, align 8, !tbaa !8
  %4 = load i32, ptr @progress_testing, align 4, !tbaa !4
  %5 = icmp ne i32 %4, 0
  br i1 %5, label %6, label %12

6:                                                ; preds = %1
  %7 = load ptr, ptr %3, align 8, !tbaa !8
  %8 = getelementptr inbounds nuw %struct.progress, ptr %7, i32 0, i32 8
  %9 = load i64, ptr %8, align 8, !tbaa !28
  %10 = load i64, ptr @progress_test_ns, align 8, !tbaa !11
  %11 = add i64 %9, %10
  store i64 %11, ptr %2, align 8
  br label %14

12:                                               ; preds = %1
  %13 = call i64 @getnanotime()
  store i64 %13, ptr %2, align 8
  br label %14

14:                                               ; preds = %12, %6
  %15 = load i64, ptr %2, align 8
  ret i64 %15
}

; Function Attrs: nounwind uwtable
define dso_local void @display_throughput(ptr noundef %0, i64 noundef %1) #0 {
  %3 = alloca ptr, align 8
  %4 = alloca i64, align 8
  %5 = alloca ptr, align 8
  %6 = alloca i64, align 8
  %7 = alloca i32, align 4
  %8 = alloca i32, align 4
  %9 = alloca i32, align 4
  %10 = alloca i32, align 4
  store ptr %0, ptr %3, align 8, !tbaa !8
  store i64 %1, ptr %4, align 8, !tbaa !11
  call void @llvm.lifetime.start.p0(i64 8, ptr %5) #9
  call void @llvm.lifetime.start.p0(i64 8, ptr %6) #9
  call void @llvm.lifetime.start.p0(i64 4, ptr %7) #9
  call void @llvm.lifetime.start.p0(i64 4, ptr %8) #9
  call void @llvm.lifetime.start.p0(i64 4, ptr %9) #9
  %11 = load ptr, ptr %3, align 8, !tbaa !8
  %12 = icmp ne ptr %11, null
  br i1 %12, label %14, label %13

13:                                               ; preds = %2
  store i32 1, ptr %10, align 4
  br label %149

14:                                               ; preds = %2
  %15 = load ptr, ptr %3, align 8, !tbaa !8
  %16 = getelementptr inbounds nuw %struct.progress, ptr %15, i32 0, i32 7
  %17 = load ptr, ptr %16, align 8, !tbaa !13
  store ptr %17, ptr %5, align 8, !tbaa !19
  %18 = load ptr, ptr %3, align 8, !tbaa !8
  %19 = call i64 @progress_getnanotime(ptr noundef %18)
  store i64 %19, ptr %6, align 8, !tbaa !11
  %20 = load ptr, ptr %5, align 8, !tbaa !19
  %21 = icmp ne ptr %20, null
  br i1 %21, label %36, label %22

22:                                               ; preds = %14
  %23 = call ptr @xcalloc(i64 noundef 1, i64 noundef 128)
  store ptr %23, ptr %5, align 8, !tbaa !19
  %24 = load ptr, ptr %3, align 8, !tbaa !8
  %25 = getelementptr inbounds nuw %struct.progress, ptr %24, i32 0, i32 7
  store ptr %23, ptr %25, align 8, !tbaa !13
  %26 = load i64, ptr %4, align 8, !tbaa !11
  %27 = load ptr, ptr %5, align 8, !tbaa !19
  %28 = getelementptr inbounds nuw %struct.throughput, ptr %27, i32 0, i32 0
  store i64 %26, ptr %28, align 8, !tbaa !20
  %29 = load ptr, ptr %5, align 8, !tbaa !19
  %30 = getelementptr inbounds nuw %struct.throughput, ptr %29, i32 0, i32 1
  store i64 %26, ptr %30, align 8, !tbaa !22
  %31 = load i64, ptr %6, align 8, !tbaa !11
  %32 = load ptr, ptr %5, align 8, !tbaa !19
  %33 = getelementptr inbounds nuw %struct.throughput, ptr %32, i32 0, i32 2
  store i64 %31, ptr %33, align 8, !tbaa !23
  %34 = load ptr, ptr %5, align 8, !tbaa !19
  %35 = getelementptr inbounds nuw %struct.throughput, ptr %34, i32 0, i32 8
  call void @strbuf_init(ptr noundef %35, i64 noundef 0)
  store i32 1, ptr %10, align 4
  br label %149

36:                                               ; preds = %14
  %37 = load i64, ptr %4, align 8, !tbaa !11
  %38 = load ptr, ptr %5, align 8, !tbaa !19
  %39 = getelementptr inbounds nuw %struct.throughput, ptr %38, i32 0, i32 0
  store i64 %37, ptr %39, align 8, !tbaa !20
  %40 = load i64, ptr %6, align 8, !tbaa !11
  %41 = load ptr, ptr %5, align 8, !tbaa !19
  %42 = getelementptr inbounds nuw %struct.throughput, ptr %41, i32 0, i32 2
  %43 = load i64, ptr %42, align 8, !tbaa !23
  %44 = sub i64 %40, %43
  %45 = icmp ule i64 %44, 500000000
  br i1 %45, label %46, label %47

46:                                               ; preds = %36
  store i32 1, ptr %10, align 4
  br label %149

47:                                               ; preds = %36
  %48 = load i64, ptr %6, align 8, !tbaa !11
  %49 = load ptr, ptr %5, align 8, !tbaa !19
  %50 = getelementptr inbounds nuw %struct.throughput, ptr %49, i32 0, i32 2
  %51 = load i64, ptr %50, align 8, !tbaa !23
  %52 = sub i64 %48, %51
  %53 = mul i64 %52, 4398
  %54 = lshr i64 %53, 32
  %55 = trunc i64 %54 to i32
  store i32 %55, ptr %7, align 4, !tbaa !4
  %56 = load i64, ptr %4, align 8, !tbaa !11
  %57 = load ptr, ptr %5, align 8, !tbaa !19
  %58 = getelementptr inbounds nuw %struct.throughput, ptr %57, i32 0, i32 1
  %59 = load i64, ptr %58, align 8, !tbaa !22
  %60 = sub i64 %56, %59
  %61 = trunc i64 %60 to i32
  store i32 %61, ptr %8, align 4, !tbaa !4
  %62 = load i64, ptr %4, align 8, !tbaa !11
  %63 = load ptr, ptr %5, align 8, !tbaa !19
  %64 = getelementptr inbounds nuw %struct.throughput, ptr %63, i32 0, i32 1
  store i64 %62, ptr %64, align 8, !tbaa !22
  %65 = load i64, ptr %6, align 8, !tbaa !11
  %66 = load ptr, ptr %5, align 8, !tbaa !19
  %67 = getelementptr inbounds nuw %struct.throughput, ptr %66, i32 0, i32 2
  store i64 %65, ptr %67, align 8, !tbaa !23
  %68 = load i32, ptr %8, align 4, !tbaa !4
  %69 = load ptr, ptr %5, align 8, !tbaa !19
  %70 = getelementptr inbounds nuw %struct.throughput, ptr %69, i32 0, i32 3
  %71 = load i32, ptr %70, align 8, !tbaa !24
  %72 = add i32 %71, %68
  store i32 %72, ptr %70, align 8, !tbaa !24
  %73 = load i32, ptr %7, align 4, !tbaa !4
  %74 = load ptr, ptr %5, align 8, !tbaa !19
  %75 = getelementptr inbounds nuw %struct.throughput, ptr %74, i32 0, i32 4
  %76 = load i32, ptr %75, align 4, !tbaa !25
  %77 = add i32 %76, %73
  store i32 %77, ptr %75, align 4, !tbaa !25
  %78 = load ptr, ptr %5, align 8, !tbaa !19
  %79 = getelementptr inbounds nuw %struct.throughput, ptr %78, i32 0, i32 3
  %80 = load i32, ptr %79, align 8, !tbaa !24
  %81 = load ptr, ptr %5, align 8, !tbaa !19
  %82 = getelementptr inbounds nuw %struct.throughput, ptr %81, i32 0, i32 4
  %83 = load i32, ptr %82, align 4, !tbaa !25
  %84 = udiv i32 %80, %83
  store i32 %84, ptr %9, align 4, !tbaa !4
  %85 = load ptr, ptr %5, align 8, !tbaa !19
  %86 = getelementptr inbounds nuw %struct.throughput, ptr %85, i32 0, i32 5
  %87 = load ptr, ptr %5, align 8, !tbaa !19
  %88 = getelementptr inbounds nuw %struct.throughput, ptr %87, i32 0, i32 7
  %89 = load i32, ptr %88, align 8, !tbaa !26
  %90 = zext i32 %89 to i64
  %91 = getelementptr inbounds nuw [8 x i32], ptr %86, i64 0, i64 %90
  %92 = load i32, ptr %91, align 4, !tbaa !4
  %93 = load ptr, ptr %5, align 8, !tbaa !19
  %94 = getelementptr inbounds nuw %struct.throughput, ptr %93, i32 0, i32 3
  %95 = load i32, ptr %94, align 8, !tbaa !24
  %96 = sub i32 %95, %92
  store i32 %96, ptr %94, align 8, !tbaa !24
  %97 = load ptr, ptr %5, align 8, !tbaa !19
  %98 = getelementptr inbounds nuw %struct.throughput, ptr %97, i32 0, i32 6
  %99 = load ptr, ptr %5, align 8, !tbaa !19
  %100 = getelementptr inbounds nuw %struct.throughput, ptr %99, i32 0, i32 7
  %101 = load i32, ptr %100, align 8, !tbaa !26
  %102 = zext i32 %101 to i64
  %103 = getelementptr inbounds nuw [8 x i32], ptr %98, i64 0, i64 %102
  %104 = load i32, ptr %103, align 4, !tbaa !4
  %105 = load ptr, ptr %5, align 8, !tbaa !19
  %106 = getelementptr inbounds nuw %struct.throughput, ptr %105, i32 0, i32 4
  %107 = load i32, ptr %106, align 4, !tbaa !25
  %108 = sub i32 %107, %104
  store i32 %108, ptr %106, align 4, !tbaa !25
  %109 = load i32, ptr %8, align 4, !tbaa !4
  %110 = load ptr, ptr %5, align 8, !tbaa !19
  %111 = getelementptr inbounds nuw %struct.throughput, ptr %110, i32 0, i32 5
  %112 = load ptr, ptr %5, align 8, !tbaa !19
  %113 = getelementptr inbounds nuw %struct.throughput, ptr %112, i32 0, i32 7
  %114 = load i32, ptr %113, align 8, !tbaa !26
  %115 = zext i32 %114 to i64
  %116 = getelementptr inbounds nuw [8 x i32], ptr %111, i64 0, i64 %115
  store i32 %109, ptr %116, align 4, !tbaa !4
  %117 = load i32, ptr %7, align 4, !tbaa !4
  %118 = load ptr, ptr %5, align 8, !tbaa !19
  %119 = getelementptr inbounds nuw %struct.throughput, ptr %118, i32 0, i32 6
  %120 = load ptr, ptr %5, align 8, !tbaa !19
  %121 = getelementptr inbounds nuw %struct.throughput, ptr %120, i32 0, i32 7
  %122 = load i32, ptr %121, align 8, !tbaa !26
  %123 = zext i32 %122 to i64
  %124 = getelementptr inbounds nuw [8 x i32], ptr %119, i64 0, i64 %123
  store i32 %117, ptr %124, align 4, !tbaa !4
  %125 = load ptr, ptr %5, align 8, !tbaa !19
  %126 = getelementptr inbounds nuw %struct.throughput, ptr %125, i32 0, i32 7
  %127 = load i32, ptr %126, align 8, !tbaa !26
  %128 = add i32 %127, 1
  %129 = urem i32 %128, 8
  %130 = load ptr, ptr %5, align 8, !tbaa !19
  %131 = getelementptr inbounds nuw %struct.throughput, ptr %130, i32 0, i32 7
  store i32 %129, ptr %131, align 8, !tbaa !26
  %132 = load ptr, ptr %5, align 8, !tbaa !19
  %133 = getelementptr inbounds nuw %struct.throughput, ptr %132, i32 0, i32 8
  %134 = load i64, ptr %4, align 8, !tbaa !11
  %135 = load i32, ptr %9, align 4, !tbaa !4
  call void @throughput_string(ptr noundef %133, i64 noundef %134, i32 noundef %135)
  %136 = load ptr, ptr %3, align 8, !tbaa !8
  %137 = getelementptr inbounds nuw %struct.progress, ptr %136, i32 0, i32 2
  %138 = load i64, ptr %137, align 8, !tbaa !27
  %139 = icmp ne i64 %138, -1
  br i1 %139, label %140, label %148

140:                                              ; preds = %47
  %141 = load volatile i32, ptr @progress_update, align 4, !tbaa !4
  %142 = icmp ne i32 %141, 0
  br i1 %142, label %143, label %148

143:                                              ; preds = %140
  %144 = load ptr, ptr %3, align 8, !tbaa !8
  %145 = load ptr, ptr %3, align 8, !tbaa !8
  %146 = getelementptr inbounds nuw %struct.progress, ptr %145, i32 0, i32 2
  %147 = load i64, ptr %146, align 8, !tbaa !27
  call void @display(ptr noundef %144, i64 noundef %147, ptr noundef null)
  br label %148

148:                                              ; preds = %143, %140, %47
  store i32 0, ptr %10, align 4
  br label %149

149:                                              ; preds = %148, %46, %22, %13
  call void @llvm.lifetime.end.p0(i64 4, ptr %9) #9
  call void @llvm.lifetime.end.p0(i64 4, ptr %8) #9
  call void @llvm.lifetime.end.p0(i64 4, ptr %7) #9
  call void @llvm.lifetime.end.p0(i64 8, ptr %6) #9
  call void @llvm.lifetime.end.p0(i64 8, ptr %5) #9
  %150 = load i32, ptr %10, align 4
  switch i32 %150, label %152 [
    i32 0, label %151
    i32 1, label %151
  ]

151:                                              ; preds = %149, %149
  ret void

152:                                              ; preds = %149
  unreachable
}