; Function Attrs: nounwind uwtable
define dso_local void @display_throughput(ptr noundef %0, i64 noundef %1) local_unnamed_addr #1 {
  %.not = icmp eq ptr %0, null
  br i1 %.not, label %68, label %3

3:                                                ; preds = %2
  %4 = getelementptr inbounds nuw i8, ptr %0, i64 48
  %5 = load ptr, ptr %4, align 8, !tbaa !8
  %6 = load i32, ptr @progress_testing, align 4, !tbaa !4
  %.not.i = icmp eq i32 %6, 0
  br i1 %.not.i, label %12, label %7

7:                                                ; preds = %3
  %8 = getelementptr inbounds nuw i8, ptr %0, i64 56
  %9 = load i64, ptr %8, align 8, !tbaa !16
  %10 = load i64, ptr @progress_test_ns, align 8, !tbaa !17
  %11 = add i64 %10, %9
  br label %progress_getnanotime.exit

12:                                               ; preds = %3
  %13 = tail call i64 @getnanotime() #12
  br label %progress_getnanotime.exit

progress_getnanotime.exit:                        ; preds = %7, %12
  %.0.i = phi i64 [ %11, %7 ], [ %13, %12 ]
  %.not50 = icmp eq ptr %5, null
  br i1 %.not50, label %14, label %19

14:                                               ; preds = %progress_getnanotime.exit
  %15 = tail call ptr @xcalloc(i64 noundef 1, i64 noundef 128) #12
  store ptr %15, ptr %4, align 8, !tbaa !8
  store i64 %1, ptr %15, align 8, !tbaa !18
  %16 = getelementptr inbounds nuw i8, ptr %15, i64 8
  store i64 %1, ptr %16, align 8, !tbaa !20
  %17 = getelementptr inbounds nuw i8, ptr %15, i64 16
  store i64 %.0.i, ptr %17, align 8, !tbaa !21
  %18 = getelementptr inbounds nuw i8, ptr %15, i64 104
  tail call void @strbuf_init(ptr noundef nonnull %18, i64 noundef 0) #12
  br label %68

19:                                               ; preds = %progress_getnanotime.exit
  store i64 %1, ptr %5, align 8, !tbaa !18
  %20 = getelementptr inbounds nuw i8, ptr %5, i64 16
  %21 = load i64, ptr %20, align 8, !tbaa !21
  %22 = sub i64 %.0.i, %21
  %23 = icmp ult i64 %22, 500000001
  br i1 %23, label %68, label %24

24:                                               ; preds = %19
  %25 = mul i64 %22, 4398
  %26 = lshr i64 %25, 32
  %27 = trunc nuw i64 %26 to i32
  %28 = getelementptr inbounds nuw i8, ptr %5, i64 8
  %29 = load i64, ptr %28, align 8, !tbaa !20
  %30 = sub i64 %1, %29
  %31 = trunc i64 %30 to i32
  store i64 %1, ptr %28, align 8, !tbaa !20
  store i64 %.0.i, ptr %20, align 8, !tbaa !21
  %32 = getelementptr inbounds nuw i8, ptr %5, i64 24
  %33 = load i32, ptr %32, align 8, !tbaa !22
  %34 = add i32 %33, %31
  %35 = getelementptr inbounds nuw i8, ptr %5, i64 28
  %36 = load i32, ptr %35, align 4, !tbaa !23
  %37 = add i32 %36, %27
  %38 = udiv i32 %34, %37
  %39 = getelementptr inbounds nuw i8, ptr %5, i64 32
  %40 = getelementptr inbounds nuw i8, ptr %5, i64 96
  %41 = load i32, ptr %40, align 8, !tbaa !24
  %42 = zext i32 %41 to i64
  %43 = getelementptr inbounds nuw [8 x i32], ptr %39, i64 0, i64 %42
  %44 = load i32, ptr %43, align 4, !tbaa !4
  %45 = sub i32 %34, %44
  store i32 %45, ptr %32, align 8, !tbaa !22
  %46 = getelementptr inbounds nuw i8, ptr %5, i64 64
  %47 = getelementptr inbounds nuw [8 x i32], ptr %46, i64 0, i64 %42
  %48 = load i32, ptr %47, align 4, !tbaa !4
  %49 = sub i32 %37, %48
  store i32 %49, ptr %35, align 4, !tbaa !23
  store i32 %31, ptr %43, align 4, !tbaa !4
  %50 = load i32, ptr %40, align 8, !tbaa !24
  %51 = zext i32 %50 to i64
  %52 = getelementptr inbounds nuw [8 x i32], ptr %46, i64 0, i64 %51
  store i32 %27, ptr %52, align 4, !tbaa !4
  %53 = load i32, ptr %40, align 8, !tbaa !24
  %54 = add i32 %53, 1
  %55 = and i32 %54, 7
  store i32 %55, ptr %40, align 8, !tbaa !24
  %56 = getelementptr inbounds nuw i8, ptr %5, i64 104
  %57 = getelementptr inbounds nuw i8, ptr %5, i64 112
  store i64 0, ptr %57, align 8, !tbaa !25
  %58 = getelementptr inbounds nuw i8, ptr %5, i64 120
  %59 = load ptr, ptr %58, align 8, !tbaa !26
  %.not9.i.i = icmp eq ptr %59, @strbuf_slopbuf
  br i1 %.not9.i.i, label %throughput_string.exit, label %60

60:                                               ; preds = %24
  store i8 0, ptr %59, align 1, !tbaa !27
  br label %throughput_string.exit

throughput_string.exit:                           ; preds = %24, %60
  tail call void @strbuf_add(ptr noundef nonnull %56, ptr noundef nonnull @.str.2, i64 noundef 2) #12
  tail call void @strbuf_humanise_bytes(ptr noundef nonnull %56, i64 noundef %1) #12
  tail call void @strbuf_add(ptr noundef nonnull %56, ptr noundef nonnull @.str.3, i64 noundef 3) #12
  %61 = shl i32 %38, 10
  %62 = zext i32 %61 to i64
  tail call void @strbuf_humanise_rate(ptr noundef nonnull %56, i64 noundef %62) #12
  %63 = getelementptr inbounds nuw i8, ptr %0, i64 16
  %64 = load i64, ptr %63, align 8, !tbaa !28
  %.not51 = icmp eq i64 %64, -1
  br i1 %.not51, label %68, label %65

65:                                               ; preds = %throughput_string.exit
  %66 = load volatile i32, ptr @progress_update, align 4, !tbaa !4
  %.not52 = icmp eq i32 %66, 0
  br i1 %.not52, label %68, label %67

67:                                               ; preds = %65
  tail call fastcc void @display(ptr noundef %0, i64 noundef %64, ptr noundef null)
  br label %68

68:                                               ; preds = %throughput_string.exit, %65, %67, %19, %2, %14
  ret void
}